target datalayout = "e-m:e-p270:32:32-p271:32:32-p272:64:64-i64:64-i128:128-f80:128-n8:16:32:64-S128"
target triple = "x86_64-pc-linux-gnu"

; Function Attrs: nounwind uwtable
define void @Wlc_BlastAdderCLA_int(ptr noundef %0, ptr noundef %1, ptr noundef %2, i32 noundef %3, i32 noundef %4) #0 {
  %6 = alloca ptr, align 8
  %7 = alloca ptr, align 8
  %8 = alloca ptr, align 8
  %9 = alloca i32, align 4
  %10 = alloca i32, align 4
  %11 = alloca ptr, align 8
  %12 = alloca ptr, align 8
  %13 = alloca ptr, align 8
  %14 = alloca i32, align 4
  %15 = alloca i32, align 4
  %16 = alloca i32, align 4
  %17 = alloca i32, align 4
  %18 = alloca i32, align 4
  store ptr %0, ptr %6, align 8, !tbaa !38
  store ptr %1, ptr %7, align 8, !tbaa !3
  store ptr %2, ptr %8, align 8, !tbaa !3
  store i32 %3, ptr %9, align 4, !tbaa !8
  store i32 %4, ptr %10, align 4, !tbaa !8
  call void @llvm.lifetime.start.p0(i64 8, ptr %11) #12
  %19 = load i32, ptr %9, align 4, !tbaa !8
  %20 = sext i32 %19 to i64
  %21 = call noalias ptr @calloc(i64 noundef %20, i64 noundef 4) #15
  store ptr %21, ptr %11, align 8, !tbaa !3
  call void @llvm.lifetime.start.p0(i64 8, ptr %12) #12
  %22 = load i32, ptr %9, align 4, !tbaa !8
  %23 = sext i32 %22 to i64
  %24 = call noalias ptr @calloc(i64 noundef %23, i64 noundef 4) #15
  store ptr %24, ptr %12, align 8, !tbaa !3
  call void @llvm.lifetime.start.p0(i64 8, ptr %13) #12
  %25 = load i32, ptr %9, align 4, !tbaa !8
  %26 = add nsw i32 %25, 1
  %27 = sext i32 %26 to i64
  %28 = call noalias ptr @calloc(i64 noundef %27, i64 noundef 4) #15
  store ptr %28, ptr %13, align 8, !tbaa !3
  call void @llvm.lifetime.start.p0(i64 4, ptr %14) #12
  call void @llvm.lifetime.start.p0(i64 4, ptr %15) #12
  call void @llvm.lifetime.start.p0(i64 4, ptr %16) #12
  %29 = load i32, ptr %9, align 4, !tbaa !8
  %30 = icmp eq i32 %29, 1
  br i1 %30, label %31, label %43

31:                                               ; preds = %5
  call void @llvm.lifetime.start.p0(i64 4, ptr %17) #12
  %32 = load i32, ptr %10, align 4, !tbaa !8
  store i32 %32, ptr %17, align 4, !tbaa !8
  %33 = load ptr, ptr %6, align 8, !tbaa !38
  %34 = load ptr, ptr %7, align 8, !tbaa !3
  %35 = getelementptr inbounds i32, ptr %34, i64 0
  %36 = load i32, ptr %35, align 4, !tbaa !8
  %37 = load ptr, ptr %8, align 8, !tbaa !3
  %38 = getelementptr inbounds i32, ptr %37, i64 0
  %39 = load i32, ptr %38, align 4, !tbaa !8
  %40 = load i32, ptr %17, align 4, !tbaa !8
  %41 = load ptr, ptr %7, align 8, !tbaa !3
  %42 = getelementptr inbounds i32, ptr %41, i64 0
  call void @Wlc_BlastFullAdder(ptr noundef %33, i32 noundef %36, i32 noundef %39, i32 noundef %40, ptr noundef %17, ptr noundef %42)
  store i32 1, ptr %18, align 4
  call void @llvm.lifetime.end.p0(i64 4, ptr %17) #12
  br label %136

43:                                               ; preds = %5
  %44 = load i32, ptr %10, align 4, !tbaa !8
  %45 = load ptr, ptr %13, align 8, !tbaa !3
  %46 = getelementptr inbounds i32, ptr %45, i64 0
  store i32 %44, ptr %46, align 4, !tbaa !8
  store i32 0, ptr %14, align 4, !tbaa !8
  br label %47

47:                                               ; preds = %84, %43
  %48 = load i32, ptr %14, align 4, !tbaa !8
  %49 = load i32, ptr %9, align 4, !tbaa !8
  %50 = icmp slt i32 %48, %49
  br i1 %50, label %51, label %87

51:                                               ; preds = %47
  %52 = load ptr, ptr %6, align 8, !tbaa !38
  %53 = load ptr, ptr %7, align 8, !tbaa !3
  %54 = load i32, ptr %14, align 4, !tbaa !8
  %55 = sext i32 %54 to i64
  %56 = getelementptr inbounds i32, ptr %53, i64 %55
  %57 = load i32, ptr %56, align 4, !tbaa !8
  %58 = load ptr, ptr %8, align 8, !tbaa !3
  %59 = load i32, ptr %14, align 4, !tbaa !8
  %60 = sext i32 %59 to i64
  %61 = getelementptr inbounds i32, ptr %58, i64 %60
  %62 = load i32, ptr %61, align 4, !tbaa !8
  %63 = call i32 @Gia_ManHashAnd(ptr noundef %52, i32 noundef %57, i32 noundef %62)
  %64 = load ptr, ptr %11, align 8, !tbaa !3
  %65 = load i32, ptr %14, align 4, !tbaa !8
  %66 = sext i32 %65 to i64
  %67 = getelementptr inbounds i32, ptr %64, i64 %66
  store i32 %63, ptr %67, align 4, !tbaa !8
  %68 = load ptr, ptr %6, align 8, !tbaa !38
  %69 = load ptr, ptr %7, align 8, !tbaa !3
  %70 = load i32, ptr %14, align 4, !tbaa !8
  %71 = sext i32 %70 to i64
  %72 = getelementptr inbounds i32, ptr %69, i64 %71
  %73 = load i32, ptr %72, align 4, !tbaa !8
  %74 = load ptr, ptr %8, align 8, !tbaa !3
  %75 = load i32, ptr %14, align 4, !tbaa !8
  %76 = sext i32 %75 to i64
  %77 = getelementptr inbounds i32, ptr %74, i64 %76
  %78 = load i32, ptr %77, align 4, !tbaa !8
  %79 = call i32 @Gia_ManHashXor(ptr noundef %68, i32 noundef %73, i32 noundef %78)
  %80 = load ptr, ptr %12, align 8, !tbaa !3
  %81 = load i32, ptr %14, align 4, !tbaa !8
  %82 = sext i32 %81 to i64
  %83 = getelementptr inbounds i32, ptr %80, i64 %82
  store i32 %79, ptr %83, align 4, !tbaa !8
  br label %84

84:                                               ; preds = %51
  %85 = load i32, ptr %14, align 4, !tbaa !8
  %86 = add nsw i32 %85, 1
  store i32 %86, ptr %14, align 4, !tbaa !8
  br label %47, !llvm.loop !78

87:                                               ; preds = %47
  %88 = load ptr, ptr %6, align 8, !tbaa !38
  %89 = load ptr, ptr %11, align 8, !tbaa !3
  %90 = load ptr, ptr %12, align 8, !tbaa !3
  %91 = load ptr, ptr %13, align 8, !tbaa !3
  %92 = load i32, ptr %9, align 4, !tbaa !8
  call void @Wlc_BlastAdderCLA_rec(ptr noundef %88, ptr noundef %89, ptr noundef %90, ptr noundef %91, i32 noundef %92, ptr noundef %15, ptr noundef %16)
  store i32 0, ptr %14, align 4, !tbaa !8
  br label %93

93:                                               ; preds = %114, %87
  %94 = load i32, ptr %14, align 4, !tbaa !8
  %95 = load i32, ptr %9, align 4, !tbaa !8
  %96 = icmp slt i32 %94, %95
  br i1 %96, label %97, label %117

97:                                               ; preds = %93
  %98 = load ptr, ptr %6, align 8, !tbaa !38
  %99 = load ptr, ptr %12, align 8, !tbaa !3
  %100 = load i32, ptr %14, align 4, !tbaa !8
  %101 = sext i32 %100 to i64
  %102 = getelementptr inbounds i32, ptr %99, i64 %101
  %103 = load i32, ptr %102, align 4, !tbaa !8
  %104 = load ptr, ptr %13, align 8, !tbaa !3
  %105 = load i32, ptr %14, align 4, !tbaa !8
  %106 = sext i32 %105 to i64
  %107 = getelementptr inbounds i32, ptr %104, i64 %106
  %108 = load i32, ptr %107, align 4, !tbaa !8
  %109 = call i32 @Gia_ManHashXor(ptr noundef %98, i32 noundef %103, i32 noundef %108)
  %110 = load ptr, ptr %7, align 8, !tbaa !3
  %111 = load i32, ptr %14, align 4, !tbaa !8
  %112 = sext i32 %111 to i64
  %113 = getelementptr inbounds i32, ptr %110, i64 %112
  store i32 %109, ptr %113, align 4, !tbaa !8
  br label %114

114:                                              ; preds = %97
  %115 = load i32, ptr %14, align 4, !tbaa !8
  %116 = add nsw i32 %115, 1
  store i32 %116, ptr %14, align 4, !tbaa !8
  br label %93, !llvm.loop !79

117:                                              ; preds = %93
  %118 = load ptr, ptr %11, align 8, !tbaa !3
  %119 = icmp ne ptr %118, null
  br i1 %119, label %120, label %122

120:                                              ; preds = %117
  %121 = load ptr, ptr %11, align 8, !tbaa !3
  call void @free(ptr noundef %121) #12
  store ptr null, ptr %11, align 8, !tbaa !3
  br label %123

122:                                              ; preds = %117
  br label %123

123:                                              ; preds = %122, %120
  %124 = load ptr, ptr %12, align 8, !tbaa !3
  %125 = icmp ne ptr %124, null
  br i1 %125, label %126, label %128

126:                                              ; preds = %123
  %127 = load ptr, ptr %12, align 8, !tbaa !3
  call void @free(ptr noundef %127) #12
  store ptr null, ptr %12, align 8, !tbaa !3
  br label %129

128:                                              ; preds = %123
  br label %129

129:                                              ; preds = %128, %126
  %130 = load ptr, ptr %13, align 8, !tbaa !3
  %131 = icmp ne ptr %130, null
  br i1 %131, label %132, label %134

132:                                              ; preds = %129
  %133 = load ptr, ptr %13, align 8, !tbaa !3
  call void @free(ptr noundef %133) #12
  store ptr null, ptr %13, align 8, !tbaa !3
  br label %135

134:                                              ; preds = %129
  br label %135

135:                                              ; preds = %134, %132
  store i32 0, ptr %18, align 4
  br label %136

136:                                              ; preds = %135, %31
  call void @llvm.lifetime.end.p0(i64 4, ptr %16) #12
  call void @llvm.lifetime.end.p0(i64 4, ptr %15) #12
  call void @llvm.lifetime.end.p0(i64 4, ptr %14) #12
  call void @llvm.lifetime.end.p0(i64 8, ptr %13) #12
  call void @llvm.lifetime.end.p0(i64 8, ptr %12) #12
  call void @llvm.lifetime.end.p0(i64 8, ptr %11) #12
  %137 = load i32, ptr %18, align 4
  switch i32 %137, label %139 [
    i32 0, label %138
    i32 1, label %138
  ]

138:                                              ; preds = %136, %136
  ret void

139:                                              ; preds = %136
  unreachable
}