; Function Attrs: nounwind uwtable
define void @Wlc_BlastAdderCLA_int(ptr noundef %0, ptr noundef captures(none) %1, ptr noundef readonly captures(none) %2, i32 noundef %3, i32 noundef %4) local_unnamed_addr #2 {
  %6 = alloca i32, align 4
  %7 = alloca i32, align 4
  %8 = alloca i32, align 4
  %9 = sext i32 %3 to i64
  %10 = tail call noalias ptr @calloc(i64 noundef %9, i64 noundef 4) #25
  %11 = tail call noalias ptr @calloc(i64 noundef %9, i64 noundef 4) #25
  %12 = add nsw i32 %3, 1
  %13 = sext i32 %12 to i64
  %14 = tail call noalias ptr @calloc(i64 noundef %13, i64 noundef 4) #25
  call void @llvm.lifetime.start.p0(i64 4, ptr nonnull %6) #23
  call void @llvm.lifetime.start.p0(i64 4, ptr nonnull %7) #23
  %15 = icmp eq i32 %3, 1
  br i1 %15, label %16, label %19

16:                                               ; preds = %5
  call void @llvm.lifetime.start.p0(i64 4, ptr nonnull %8) #23
  %17 = load i32, ptr %1, align 4, !tbaa !3
  %18 = load i32, ptr %2, align 4, !tbaa !3
  call void @Wlc_BlastFullAdder(ptr noundef %0, i32 noundef %17, i32 noundef %18, i32 noundef %4, ptr noundef nonnull %8, ptr noundef nonnull %1)
  call void @llvm.lifetime.end.p0(i64 4, ptr nonnull %8) #23
  br label %40

19:                                               ; preds = %5
  store i32 %4, ptr %14, align 4, !tbaa !3
  %20 = icmp sgt i32 %3, 0
  br i1 %20, label %.lr.ph.preheader, label %._crit_edge.thread

._crit_edge.thread:                               ; preds = %19
  call void @Wlc_BlastAdderCLA_rec(ptr noundef %0, ptr noundef %10, ptr noundef %11, ptr noundef nonnull %14, i32 noundef %3, ptr noundef nonnull %6, ptr noundef nonnull %7)
  br label %._crit_edge56

.lr.ph.preheader:                                 ; preds = %19
  %wide.trip.count = zext nneg i32 %3 to i64
  br label %.lr.ph

.lr.ph:                                           ; preds = %.lr.ph.preheader, %.lr.ph
  %indvars.iv = phi i64 [ 0, %.lr.ph.preheader ], [ %indvars.iv.next, %.lr.ph ]
  %21 = getelementptr inbounds nuw i32, ptr %1, i64 %indvars.iv
  %22 = load i32, ptr %21, align 4, !tbaa !3
  %23 = getelementptr inbounds nuw i32, ptr %2, i64 %indvars.iv
  %24 = load i32, ptr %23, align 4, !tbaa !3
  %25 = tail call i32 @Gia_ManHashAnd(ptr noundef %0, i32 noundef %22, i32 noundef %24) #23
  %26 = getelementptr inbounds nuw i32, ptr %10, i64 %indvars.iv
  store i32 %25, ptr %26, align 4, !tbaa !3
  %27 = load i32, ptr %21, align 4, !tbaa !3
  %28 = load i32, ptr %23, align 4, !tbaa !3
  %29 = tail call i32 @Gia_ManHashXor(ptr noundef %0, i32 noundef %27, i32 noundef %28) #23
  %30 = getelementptr inbounds nuw i32, ptr %11, i64 %indvars.iv
  store i32 %29, ptr %30, align 4, !tbaa !3
  %indvars.iv.next = add nuw nsw i64 %indvars.iv, 1
  %exitcond.not = icmp eq i64 %indvars.iv.next, %wide.trip.count
  br i1 %exitcond.not, label %._crit_edge, label %.lr.ph, !llvm.loop !68

._crit_edge:                                      ; preds = %.lr.ph
  call void @Wlc_BlastAdderCLA_rec(ptr noundef %0, ptr noundef nonnull %10, ptr noundef nonnull %11, ptr noundef nonnull %14, i32 noundef %3, ptr noundef nonnull %6, ptr noundef nonnull %7)
  %wide.trip.count61 = zext nneg i32 %3 to i64
  br label %.lr.ph55

.lr.ph55:                                         ; preds = %._crit_edge, %.lr.ph55
  %indvars.iv58 = phi i64 [ 0, %._crit_edge ], [ %indvars.iv.next59, %.lr.ph55 ]
  %31 = getelementptr inbounds nuw i32, ptr %11, i64 %indvars.iv58
  %32 = load i32, ptr %31, align 4, !tbaa !3
  %33 = getelementptr inbounds nuw i32, ptr %14, i64 %indvars.iv58
  %34 = load i32, ptr %33, align 4, !tbaa !3
  %35 = tail call i32 @Gia_ManHashXor(ptr noundef %0, i32 noundef %32, i32 noundef %34) #23
  %36 = getelementptr inbounds nuw i32, ptr %1, i64 %indvars.iv58
  store i32 %35, ptr %36, align 4, !tbaa !3
  %indvars.iv.next59 = add nuw nsw i64 %indvars.iv58, 1
  %exitcond62.not = icmp eq i64 %indvars.iv.next59, %wide.trip.count61
  br i1 %exitcond62.not, label %._crit_edge56, label %.lr.ph55, !llvm.loop !69

._crit_edge56:                                    ; preds = %.lr.ph55, %._crit_edge.thread
  %.not = icmp eq ptr %10, null
  br i1 %.not, label %37, label %._crit_edge56.thread

._crit_edge56.thread:                             ; preds = %._crit_edge56
  tail call void @free(ptr noundef nonnull %10) #23
  br label %37

37:                                               ; preds = %._crit_edge56, %._crit_edge56.thread
  %.not51 = icmp eq ptr %11, null
  br i1 %.not51, label %39, label %38

38:                                               ; preds = %37
  tail call void @free(ptr noundef nonnull %11) #23
  br label %39

39:                                               ; preds = %38, %37
  tail call void @free(ptr noundef nonnull %14) #23
  br label %40

40:                                               ; preds = %39, %16
  call void @llvm.lifetime.end.p0(i64 4, ptr nonnull %7) #23
  call void @llvm.lifetime.end.p0(i64 4, ptr nonnull %6) #23
  ret void
}